; Function Attrs: mustprogress uwtable
define dso_local void @_ZNSt3__119__shared_mutex_base6unlockEv(ptr noundef nonnull align 8 dereferenceable(140) %0) local_unnamed_addr #1 align 2 {
  tail call void @_ZNSt3__15mutex4lockEv(ptr noundef nonnull align 8 dereferenceable(40) %0)
  %2 = getelementptr inbounds nuw i8, ptr %0, i64 136
  store i32 0, ptr %2, align 8, !tbaa !13
  tail call void @_ZNSt3__15mutex6unlockEv(ptr noundef nonnull align 8 dereferenceable(40) %0) #6
  %3 = getelementptr inbounds nuw i8, ptr %0, i64 40
  tail call void @_ZNSt3__118condition_variable10notify_allEv(ptr noundef nonnull align 8 dereferenceable(48) %3) #6
  ret void
}